target datalayout = "e-m:e-p270:32:32-p271:32:32-p272:64:64-i64:64-i128:128-f80:128-n8:16:32:64-S128"
target triple = "x86_64-unknown-linux-gnu"

@_ZL12gPublicTypes = internal constant [16 x i8] c"\00\01\02\03\02\02\00\07\08\08\FF\FF\FF\FF\0E\FF", align 16

; Function Attrs: mustprogress nounwind uwtable
define i32 @res_getPublicType_75(i32 noundef %res) #2 {
entry:
  %res.addr = alloca i32, align 4
  store i32 %res, ptr %res.addr, align 4
  %0 = load i32, ptr %res.addr, align 4
  %shr = lshr i32 %0, 28
  %idxprom = sext i32 %shr to i64
  %arrayidx = getelementptr inbounds [16 x i8], ptr @_ZL12gPublicTypes, i64 0, i64 %idxprom
  %1 = load i8, ptr %arrayidx, align 1
  %conv = sext i8 %1 to i32
  ret i32 %conv
}