; Function Attrs: mustprogress nofree norecurse nosync nounwind willreturn memory(none) uwtable
define i32 @res_getPublicType_75(i32 noundef %res) local_unnamed_addr #4 {
entry:
  %shr = lshr i32 %res, 28
  %idxprom = zext nneg i32 %shr to i64
  %arrayidx = getelementptr inbounds [16 x i8], ptr @_ZL12gPublicTypes, i64 0, i64 %idxprom
  %0 = load i8, ptr %arrayidx, align 1
  %conv = sext i8 %0 to i32
  ret i32 %conv
}